; Function Attrs: nounwind uwtable
define noundef i32 @Abc_NtkMapToSopUsingLibrary(ptr noundef captures(none) initializes((256, 264)) %0, ptr noundef readnone captures(none) %1) local_unnamed_addr #2 {
  %3 = tail call ptr (...) @Mem_FlexStart() #17
  %4 = getelementptr inbounds nuw i8, ptr %0, i64 256
  store ptr %3, ptr %4, align 8, !tbaa !65
  %5 = getelementptr inbounds nuw i8, ptr %0, i64 32
  %6 = load ptr, ptr %5, align 8, !tbaa !18
  %7 = getelementptr i8, ptr %6, i64 4
  %.val20 = load i32, ptr %7, align 4, !tbaa !35
  %8 = icmp sgt i32 %.val20, 0
  br i1 %8, label %.lr.ph, label %.critedge

.lr.ph:                                           ; preds = %2, %30
  %9 = phi ptr [ %31, %30 ], [ %6, %2 ]
  %indvars.iv = phi i64 [ %indvars.iv.next, %30 ], [ 0, %2 ]
  %10 = getelementptr i8, ptr %9, i64 8
  %.val15.val = load ptr, ptr %10, align 8, !tbaa !37
  %11 = getelementptr inbounds nuw ptr, ptr %.val15.val, i64 %indvars.iv
  %12 = load ptr, ptr %11, align 8, !tbaa !38
  %13 = icmp eq ptr %12, null
  br i1 %13, label %30, label %14

14:                                               ; preds = %.lr.ph
  %15 = getelementptr i8, ptr %12, i64 20
  %.val16 = load i32, ptr %15, align 4
  %16 = and i32 %.val16, 15
  %.not = icmp eq i32 %16, 7
  br i1 %.not, label %17, label %30

17:                                               ; preds = %14
  %18 = load ptr, ptr %12, align 8, !tbaa !43
  %19 = getelementptr i8, ptr %18, i64 4
  %.val5.i = load i32, ptr %19, align 4, !tbaa !46
  %.not.i.not = icmp eq i32 %.val5.i, 4
  br i1 %.not.i.not, label %20, label %Abc_ObjIsBarBuf.exit.thread

20:                                               ; preds = %17
  %21 = getelementptr i8, ptr %12, i64 28
  %.val6.i = load i32, ptr %21, align 4, !tbaa !40
  %22 = icmp eq i32 %.val6.i, 1
  br i1 %22, label %Abc_ObjIsBarBuf.exit, label %Abc_ObjIsBarBuf.exit.thread

Abc_ObjIsBarBuf.exit:                             ; preds = %20
  %23 = getelementptr inbounds nuw i8, ptr %12, i64 56
  %24 = load ptr, ptr %23, align 8, !tbaa !3
  %.not19 = icmp eq ptr %24, null
  br i1 %.not19, label %30, label %Abc_ObjIsBarBuf.exit.thread

Abc_ObjIsBarBuf.exit.thread:                      ; preds = %17, %20, %Abc_ObjIsBarBuf.exit
  %25 = getelementptr inbounds nuw i8, ptr %12, i64 56
  %26 = load ptr, ptr %25, align 8, !tbaa !3
  %27 = tail call ptr @Mio_GateReadSop(ptr noundef %26) #17
  %28 = load ptr, ptr %4, align 8, !tbaa !65
  %29 = tail call ptr @Abc_SopRegister(ptr noundef %28, ptr noundef %27) #17
  store ptr %29, ptr %25, align 8, !tbaa !3
  %.pre = load ptr, ptr %5, align 8, !tbaa !18
  br label %30

30:                                               ; preds = %Abc_ObjIsBarBuf.exit.thread, %14, %.lr.ph, %Abc_ObjIsBarBuf.exit
  %31 = phi ptr [ %.pre, %Abc_ObjIsBarBuf.exit.thread ], [ %9, %14 ], [ %9, %.lr.ph ], [ %9, %Abc_ObjIsBarBuf.exit ]
  %indvars.iv.next = add nuw nsw i64 %indvars.iv, 1
  %32 = getelementptr i8, ptr %31, i64 4
  %.val = load i32, ptr %32, align 4, !tbaa !35
  %33 = sext i32 %.val to i64
  %34 = icmp slt i64 %indvars.iv.next, %33
  br i1 %34, label %.lr.ph, label %.critedge, !llvm.loop !141

.critedge:                                        ; preds = %30, %2
  %35 = getelementptr inbounds nuw i8, ptr %0, i64 4
  store i32 1, ptr %35, align 4, !tbaa !46
  ret i32 1
}